target datalayout = "e-m:e-p270:32:32-p271:32:32-p272:64:64-i64:64-i128:128-f80:128-n8:16:32:64-S128"
target triple = "x86_64-unknown-linux-gnu"

%"class.hermes::vm::PinnedHermesValue" = type { %"class.hermes::vm::HermesValue" }
%"class.hermes::vm::HermesValue" = type { i64 }
%"class.facebook::jsi::Runtime" = type { ptr }
%"class.facebook::jsi::Instrumentation" = type { ptr }
%"class.std::recursive_mutex" = type { %"class.std::__recursive_mutex_base" }
%"class.std::__recursive_mutex_base" = type { %union.pthread_mutex_t }
%union.pthread_mutex_t = type { %struct.__pthread_mutex_s }
%struct.__pthread_mutex_s = type { i32, i32, i32, i32, i32, i16, i16, %struct.__pthread_internal_list }
%struct.__pthread_internal_list = type { ptr, ptr }
%"struct.facebook::hermes::HermesRuntimeImpl::ManagedValue" = type { %"struct.facebook::jsi::Runtime::PointerValue", %"struct.std::atomic.315", %union.anon.317 }
%"struct.facebook::jsi::Runtime::PointerValue" = type { ptr }
%"struct.std::atomic.315" = type { %"struct.std::__atomic_base.316" }
%"struct.std::__atomic_base.316" = type { i32 }
%union.anon.317 = type { %"class.hermes::vm::PinnedHermesValue" }
%"class.facebook::jsi::WithRuntimeDecorator" = type { %"class.facebook::jsi::RuntimeDecorator", ptr }
%"class.facebook::jsi::RuntimeDecorator" = type { %"class.facebook::jsi::ThreadSafeRuntime", %"class.facebook::jsi::Instrumentation", ptr }
%"class.facebook::jsi::ThreadSafeRuntime" = type { %"class.facebook::jsi::Runtime" }
%"struct.facebook::jsi::detail::WithLock" = type { %"class.facebook::hermes::(anonymous namespace)::HermesMutex" }
%"class.facebook::hermes::(anonymous namespace)::HermesMutex" = type { %"class.std::recursive_mutex" }
%"struct.facebook::jsi::WithRuntimeDecorator<facebook::jsi::detail::WithLock<facebook::hermes::HermesRuntimeImpl, facebook::hermes::(anonymous namespace)::HermesMutex>, facebook::hermes::HermesRuntimeImpl, facebook::jsi::ThreadSafeRuntime>::Around" = type { ptr }

; Function Attrs: mustprogress nounwind uwtable
define internal noundef i32 @_ZL18__gthread_active_pv() #1 {
entry:
  ret i32 1
}

; Function Attrs: mustprogress nounwind uwtable
define internal noundef i32 @_ZL22__gthread_mutex_unlockP15pthread_mutex_t(ptr noundef %__mutex) #1 {
entry:
  %retval = alloca i32, align 4
  %__mutex.addr = alloca ptr, align 8
  store ptr %__mutex, ptr %__mutex.addr, align 8
  %call = call noundef i32 @_ZL18__gthread_active_pv()
  %tobool = icmp ne i32 %call, 0
  br i1 %tobool, label %if.then, label %if.else

if.then:                                          ; preds = %entry
  %0 = load ptr, ptr %__mutex.addr, align 8
  %call1 = call i32 @pthread_mutex_unlock(ptr noundef %0) #19
  store i32 %call1, ptr %retval, align 4
  br label %return

if.else:                                          ; preds = %entry
  store i32 0, ptr %retval, align 4
  br label %return

return:                                           ; preds = %if.else, %if.then
  %1 = load i32, ptr %retval, align 4
  ret i32 %1
}

; Function Attrs: mustprogress uwtable
define internal noundef i32 @_ZL20__gthread_mutex_lockP15pthread_mutex_t(ptr noundef %__mutex) #0 {
entry:
  %retval = alloca i32, align 4
  %__mutex.addr = alloca ptr, align 8
  store ptr %__mutex, ptr %__mutex.addr, align 8
  %call = call noundef i32 @_ZL18__gthread_active_pv()
  %tobool = icmp ne i32 %call, 0
  br i1 %tobool, label %if.then, label %if.else

if.then:                                          ; preds = %entry
  %0 = load ptr, ptr %__mutex.addr, align 8
  %call1 = call i32 @pthread_mutex_lock(ptr noundef %0) #19
  store i32 %call1, ptr %retval, align 4
  br label %return

if.else:                                          ; preds = %entry
  store i32 0, ptr %retval, align 4
  br label %return

return:                                           ; preds = %if.else, %if.then
  %1 = load i32, ptr %retval, align 4
  ret i32 %1
}

; Function Attrs: mustprogress uwtable
define internal noundef i32 @_ZL32__gthread_recursive_mutex_unlockP15pthread_mutex_t(ptr noundef %__mutex) #0 {
entry:
  %__mutex.addr = alloca ptr, align 8
  store ptr %__mutex, ptr %__mutex.addr, align 8
  %0 = load ptr, ptr %__mutex.addr, align 8
  %call = call noundef i32 @_ZL22__gthread_mutex_unlockP15pthread_mutex_t(ptr noundef %0)
  ret i32 %call
}

; Function Attrs: mustprogress uwtable
define internal noundef i32 @_ZL30__gthread_recursive_mutex_lockP15pthread_mutex_t(ptr noundef %__mutex) #0 {
entry:
  %__mutex.addr = alloca ptr, align 8
  store ptr %__mutex, ptr %__mutex.addr, align 8
  %0 = load ptr, ptr %__mutex.addr, align 8
  %call = call noundef i32 @_ZL20__gthread_mutex_lockP15pthread_mutex_t(ptr noundef %0)
  ret i32 %call
}

; Function Attrs: mustprogress uwtable
define linkonce_odr void @_ZNSt15recursive_mutex6unlockEv(ptr noundef nonnull align 8 dereferenceable(40) %this) #0 comdat align 2 {
entry:
  %this.addr = alloca ptr, align 8
  store ptr %this, ptr %this.addr, align 8
  %this1 = load ptr, ptr %this.addr, align 8
  %_M_mutex = getelementptr inbounds %"class.std::__recursive_mutex_base", ptr %this1, i32 0, i32 0
  %call = call noundef i32 @_ZL32__gthread_recursive_mutex_unlockP15pthread_mutex_t(ptr noundef %_M_mutex)
  ret void
}

; Function Attrs: mustprogress nounwind uwtable
define linkonce_odr hidden void @_ZN8facebook6hermes17HermesRuntimeImpl12ManagedValueIN6hermes2vm17PinnedHermesValueEE3incEv(ptr noundef nonnull align 8 dereferenceable(24) %this) #1 comdat align 2 {
entry:
  %this.addr.i = alloca ptr, align 8
  %__i.addr.i = alloca i32, align 4
  %__m.addr.i = alloca i32, align 4
  %.atomictmp.i = alloca i32, align 4
  %atomic-temp.i = alloca i32, align 4
  %this.addr = alloca ptr, align 8
  %oldCount = alloca i32, align 4
  store ptr %this, ptr %this.addr, align 8
  %this1 = load ptr, ptr %this.addr, align 8
  %refCount_ = getelementptr inbounds %"struct.facebook::hermes::HermesRuntimeImpl::ManagedValue", ptr %this1, i32 0, i32 1
  store ptr %refCount_, ptr %this.addr.i, align 8
  store i32 1, ptr %__i.addr.i, align 4
  store i32 0, ptr %__m.addr.i, align 4
  %this1.i = load ptr, ptr %this.addr.i, align 8
  %0 = load i32, ptr %__m.addr.i, align 4
  %1 = load i32, ptr %__i.addr.i, align 4
  store i32 %1, ptr %.atomictmp.i, align 4
  switch i32 %0, label %monotonic.i [
    i32 1, label %acquire.i
    i32 2, label %acquire.i
    i32 3, label %release.i
    i32 4, label %acqrel.i
    i32 5, label %seqcst.i
  ]

monotonic.i:                                      ; preds = %entry
  %2 = load i32, ptr %.atomictmp.i, align 4
  %3 = atomicrmw add ptr %this1.i, i32 %2 monotonic, align 4
  store i32 %3, ptr %atomic-temp.i, align 4
  br label %_ZNSt13__atomic_baseIjE9fetch_addEjSt12memory_order.exit

acquire.i:                                        ; preds = %entry, %entry
  %4 = load i32, ptr %.atomictmp.i, align 4
  %5 = atomicrmw add ptr %this1.i, i32 %4 acquire, align 4
  store i32 %5, ptr %atomic-temp.i, align 4
  br label %_ZNSt13__atomic_baseIjE9fetch_addEjSt12memory_order.exit

release.i:                                        ; preds = %entry
  %6 = load i32, ptr %.atomictmp.i, align 4
  %7 = atomicrmw add ptr %this1.i, i32 %6 release, align 4
  store i32 %7, ptr %atomic-temp.i, align 4
  br label %_ZNSt13__atomic_baseIjE9fetch_addEjSt12memory_order.exit

acqrel.i:                                         ; preds = %entry
  %8 = load i32, ptr %.atomictmp.i, align 4
  %9 = atomicrmw add ptr %this1.i, i32 %8 acq_rel, align 4
  store i32 %9, ptr %atomic-temp.i, align 4
  br label %_ZNSt13__atomic_baseIjE9fetch_addEjSt12memory_order.exit

seqcst.i:                                         ; preds = %entry
  %10 = load i32, ptr %.atomictmp.i, align 4
  %11 = atomicrmw add ptr %this1.i, i32 %10 seq_cst, align 4
  store i32 %11, ptr %atomic-temp.i, align 4
  br label %_ZNSt13__atomic_baseIjE9fetch_addEjSt12memory_order.exit

_ZNSt13__atomic_baseIjE9fetch_addEjSt12memory_order.exit: ; preds = %seqcst.i, %acqrel.i, %release.i, %acquire.i, %monotonic.i
  %12 = load i32, ptr %atomic-temp.i, align 4
  store i32 %12, ptr %oldCount, align 4
  ret void
}

; Function Attrs: mustprogress uwtable
define linkonce_odr void @_ZNSt15recursive_mutex4lockEv(ptr noundef nonnull align 8 dereferenceable(40) %this) #0 comdat align 2 {
entry:
  %this.addr = alloca ptr, align 8
  %__e = alloca i32, align 4
  store ptr %this, ptr %this.addr, align 8
  %this1 = load ptr, ptr %this.addr, align 8
  %_M_mutex = getelementptr inbounds %"class.std::__recursive_mutex_base", ptr %this1, i32 0, i32 0
  %call = call noundef i32 @_ZL30__gthread_recursive_mutex_lockP15pthread_mutex_t(ptr noundef %_M_mutex)
  store i32 %call, ptr %__e, align 4
  %0 = load i32, ptr %__e, align 4
  %tobool = icmp ne i32 %0, 0
  br i1 %tobool, label %if.then, label %if.end

if.then:                                          ; preds = %entry
  %1 = load i32, ptr %__e, align 4
  call void @_ZSt20__throw_system_errori(i32 noundef %1) #21
  unreachable

if.end:                                           ; preds = %entry
  ret void
}

; Function Attrs: mustprogress uwtable
define internal void @_ZN8facebook3jsi6detail8WithLockINS_6hermes17HermesRuntimeImplENS3_12_GLOBAL__N_111HermesMutexEE5afterEv(ptr noundef nonnull align 8 dereferenceable(40) %this) #0 align 2 {
entry:
  %this.addr = alloca ptr, align 8
  store ptr %this, ptr %this.addr, align 8
  %this1 = load ptr, ptr %this.addr, align 8
  %lock = getelementptr inbounds %"struct.facebook::jsi::detail::WithLock", ptr %this1, i32 0, i32 0
  call void @_ZNSt15recursive_mutex6unlockEv(ptr noundef nonnull align 8 dereferenceable(40) %lock)
  ret void
}

; Function Attrs: mustprogress uwtable
define linkonce_odr hidden noundef ptr @_ZN8facebook6hermes17HermesRuntimeImpl5cloneEPKNS_3jsi7Runtime12PointerValueE(ptr noundef nonnull align 8 dereferenceable(184) %this, ptr noundef %pv) #0 comdat align 2 {
entry:
  %retval = alloca ptr, align 8
  %this.addr = alloca ptr, align 8
  %pv.addr = alloca ptr, align 8
  %result = alloca ptr, align 8
  store ptr %this, ptr %this.addr, align 8
  store ptr %pv, ptr %pv.addr, align 8
  %0 = load ptr, ptr %pv.addr, align 8
  %tobool = icmp ne ptr %0, null
  br i1 %tobool, label %if.end, label %if.then

if.then:                                          ; preds = %entry
  store ptr null, ptr %retval, align 8
  br label %return

if.end:                                           ; preds = %entry
  %1 = load ptr, ptr %pv.addr, align 8
  store ptr %1, ptr %result, align 8
  %2 = load ptr, ptr %result, align 8
  call void @_ZN8facebook6hermes17HermesRuntimeImpl12ManagedValueIN6hermes2vm17PinnedHermesValueEE3incEv(ptr noundef nonnull align 8 dereferenceable(24) %2)
  %3 = load ptr, ptr %result, align 8
  store ptr %3, ptr %retval, align 8
  br label %return

return:                                           ; preds = %if.end, %if.then
  %4 = load ptr, ptr %retval, align 8
  ret ptr %4
}

; Function Attrs: mustprogress uwtable
define internal void @_ZN8facebook3jsi6detail8WithLockINS_6hermes17HermesRuntimeImplENS3_12_GLOBAL__N_111HermesMutexEE6beforeEv(ptr noundef nonnull align 8 dereferenceable(40) %this) #0 align 2 {
entry:
  %this.addr = alloca ptr, align 8
  store ptr %this, ptr %this.addr, align 8
  %this1 = load ptr, ptr %this.addr, align 8
  %lock = getelementptr inbounds %"struct.facebook::jsi::detail::WithLock", ptr %this1, i32 0, i32 0
  call void @_ZNSt15recursive_mutex4lockEv(ptr noundef nonnull align 8 dereferenceable(40) %lock)
  ret void
}

; Function Attrs: noreturn nounwind uwtable
define linkonce_odr hidden void @__clang_call_terminate(ptr noundef %0) #13 comdat {
  %2 = call ptr @__cxa_begin_catch(ptr %0) #19
  call void @_ZSt9terminatev() #23
  unreachable
}

; Function Attrs: mustprogress uwtable
define internal void @_ZN8facebook3jsi6detail11AfterCallerINS1_8WithLockINS_6hermes17HermesRuntimeImplENS4_12_GLOBAL__N_111HermesMutexEEEvE5afterERS8_(ptr noundef nonnull align 8 dereferenceable(40) %t) #0 align 2 {
entry:
  %t.addr = alloca ptr, align 8
  store ptr %t, ptr %t.addr, align 8
  %0 = load ptr, ptr %t.addr, align 8
  call void @_ZN8facebook3jsi6detail8WithLockINS_6hermes17HermesRuntimeImplENS3_12_GLOBAL__N_111HermesMutexEE5afterEv(ptr noundef nonnull align 8 dereferenceable(40) %0)
  ret void
}

; Function Attrs: mustprogress uwtable
define hidden noundef ptr @_ZN8facebook6hermes17HermesRuntimeImpl11cloneSymbolEPKNS_3jsi7Runtime12PointerValueE(ptr noundef nonnull align 8 dereferenceable(184) %this, ptr noundef %pv) unnamed_addr #0 align 2 {
entry:
  %this.addr = alloca ptr, align 8
  %pv.addr = alloca ptr, align 8
  store ptr %this, ptr %this.addr, align 8
  store ptr %pv, ptr %pv.addr, align 8
  %this1 = load ptr, ptr %this.addr, align 8
  %0 = load ptr, ptr %pv.addr, align 8
  %call = call noundef ptr @_ZN8facebook6hermes17HermesRuntimeImpl5cloneEPKNS_3jsi7Runtime12PointerValueE(ptr noundef nonnull align 8 dereferenceable(184) %this1, ptr noundef %0)
  ret ptr %call
}

; Function Attrs: mustprogress uwtable
define internal void @_ZN8facebook3jsi6detail12BeforeCallerINS1_8WithLockINS_6hermes17HermesRuntimeImplENS4_12_GLOBAL__N_111HermesMutexEEEvE6beforeERS8_(ptr noundef nonnull align 8 dereferenceable(40) %t) #0 align 2 {
entry:
  %t.addr = alloca ptr, align 8
  store ptr %t, ptr %t.addr, align 8
  %0 = load ptr, ptr %t.addr, align 8
  call void @_ZN8facebook3jsi6detail8WithLockINS_6hermes17HermesRuntimeImplENS3_12_GLOBAL__N_111HermesMutexEE6beforeEv(ptr noundef nonnull align 8 dereferenceable(40) %0)
  ret void
}

; Function Attrs: mustprogress nounwind uwtable
define internal void @_ZN8facebook3jsi20WithRuntimeDecoratorINS0_6detail8WithLockINS_6hermes17HermesRuntimeImplENS4_12_GLOBAL__N_111HermesMutexEEES5_NS0_17ThreadSafeRuntimeEE6AroundD2Ev(ptr noundef nonnull align 8 dereferenceable(8) %this) unnamed_addr #1 align 2 personality ptr @__gxx_personality_v0 {
entry:
  %this.addr = alloca ptr, align 8
  store ptr %this, ptr %this.addr, align 8
  %this1 = load ptr, ptr %this.addr, align 8
  %with_ = getelementptr inbounds %"struct.facebook::jsi::WithRuntimeDecorator<facebook::jsi::detail::WithLock<facebook::hermes::HermesRuntimeImpl, facebook::hermes::(anonymous namespace)::HermesMutex>, facebook::hermes::HermesRuntimeImpl, facebook::jsi::ThreadSafeRuntime>::Around", ptr %this1, i32 0, i32 0
  %0 = load ptr, ptr %with_, align 8
  invoke void @_ZN8facebook3jsi6detail11AfterCallerINS1_8WithLockINS_6hermes17HermesRuntimeImplENS4_12_GLOBAL__N_111HermesMutexEEEvE5afterERS8_(ptr noundef nonnull align 8 dereferenceable(40) %0)
          to label %invoke.cont unwind label %terminate.lpad

invoke.cont:                                      ; preds = %entry
  ret void

terminate.lpad:                                   ; preds = %entry
  %1 = landingpad { ptr, i32 }
          catch ptr null
  %2 = extractvalue { ptr, i32 } %1, 0
  call void @__clang_call_terminate(ptr %2) #23
  unreachable
}

; Function Attrs: mustprogress uwtable
define linkonce_odr hidden noundef ptr @_ZN8facebook3jsi16RuntimeDecoratorINS_6hermes17HermesRuntimeImplENS0_17ThreadSafeRuntimeEE11cloneSymbolEPKNS0_7Runtime12PointerValueE(ptr noundef nonnull align 8 dereferenceable(24) %this, ptr noundef %pv) unnamed_addr #0 comdat align 2 {
entry:
  %this.addr = alloca ptr, align 8
  %pv.addr = alloca ptr, align 8
  store ptr %this, ptr %this.addr, align 8
  store ptr %pv, ptr %pv.addr, align 8
  %this1 = load ptr, ptr %this.addr, align 8
  %plain_ = getelementptr inbounds %"class.facebook::jsi::RuntimeDecorator", ptr %this1, i32 0, i32 2
  %0 = load ptr, ptr %plain_, align 8
  %1 = load ptr, ptr %pv.addr, align 8
  %call = call noundef ptr @_ZN8facebook6hermes17HermesRuntimeImpl11cloneSymbolEPKNS_3jsi7Runtime12PointerValueE(ptr noundef nonnull align 8 dereferenceable(184) %0, ptr noundef %1)
  ret ptr %call
}

; Function Attrs: mustprogress uwtable
define internal void @_ZN8facebook3jsi20WithRuntimeDecoratorINS0_6detail8WithLockINS_6hermes17HermesRuntimeImplENS4_12_GLOBAL__N_111HermesMutexEEES5_NS0_17ThreadSafeRuntimeEE6AroundC2ERS8_(ptr noundef nonnull align 8 dereferenceable(8) %this, ptr noundef nonnull align 8 dereferenceable(40) %with) unnamed_addr #0 align 2 {
entry:
  %this.addr = alloca ptr, align 8
  %with.addr = alloca ptr, align 8
  store ptr %this, ptr %this.addr, align 8
  store ptr %with, ptr %with.addr, align 8
  %this1 = load ptr, ptr %this.addr, align 8
  %with_ = getelementptr inbounds %"struct.facebook::jsi::WithRuntimeDecorator<facebook::jsi::detail::WithLock<facebook::hermes::HermesRuntimeImpl, facebook::hermes::(anonymous namespace)::HermesMutex>, facebook::hermes::HermesRuntimeImpl, facebook::jsi::ThreadSafeRuntime>::Around", ptr %this1, i32 0, i32 0
  %0 = load ptr, ptr %with.addr, align 8
  store ptr %0, ptr %with_, align 8
  %with_2 = getelementptr inbounds %"struct.facebook::jsi::WithRuntimeDecorator<facebook::jsi::detail::WithLock<facebook::hermes::HermesRuntimeImpl, facebook::hermes::(anonymous namespace)::HermesMutex>, facebook::hermes::HermesRuntimeImpl, facebook::jsi::ThreadSafeRuntime>::Around", ptr %this1, i32 0, i32 0
  %1 = load ptr, ptr %with_2, align 8
  call void @_ZN8facebook3jsi6detail12BeforeCallerINS1_8WithLockINS_6hermes17HermesRuntimeImplENS4_12_GLOBAL__N_111HermesMutexEEEvE6beforeERS8_(ptr noundef nonnull align 8 dereferenceable(40) %1)
  ret void
}

; Function Attrs: mustprogress uwtable
define internal noundef ptr @_ZN8facebook3jsi20WithRuntimeDecoratorINS0_6detail8WithLockINS_6hermes17HermesRuntimeImplENS4_12_GLOBAL__N_111HermesMutexEEES5_NS0_17ThreadSafeRuntimeEE11cloneSymbolEPKNS0_7Runtime12PointerValueE(ptr noundef nonnull align 8 dereferenceable(32) %this, ptr noundef %pv) unnamed_addr #0 align 2 personality ptr @__gxx_personality_v0 {
entry:
  %this.addr = alloca ptr, align 8
  %pv.addr = alloca ptr, align 8
  %around = alloca %"struct.facebook::jsi::WithRuntimeDecorator<facebook::jsi::detail::WithLock<facebook::hermes::HermesRuntimeImpl, facebook::hermes::(anonymous namespace)::HermesMutex>, facebook::hermes::HermesRuntimeImpl, facebook::jsi::ThreadSafeRuntime>::Around", align 8
  %exn.slot = alloca ptr, align 8
  %ehselector.slot = alloca i32, align 4
  store ptr %this, ptr %this.addr, align 8
  store ptr %pv, ptr %pv.addr, align 8
  %this1 = load ptr, ptr %this.addr, align 8
  %with_ = getelementptr inbounds %"class.facebook::jsi::WithRuntimeDecorator", ptr %this1, i32 0, i32 1
  %0 = load ptr, ptr %with_, align 8
  call void @_ZN8facebook3jsi20WithRuntimeDecoratorINS0_6detail8WithLockINS_6hermes17HermesRuntimeImplENS4_12_GLOBAL__N_111HermesMutexEEES5_NS0_17ThreadSafeRuntimeEE6AroundC2ERS8_(ptr noundef nonnull align 8 dereferenceable(8) %around, ptr noundef nonnull align 8 dereferenceable(40) %0)
  %1 = load ptr, ptr %pv.addr, align 8
  %call = invoke noundef ptr @_ZN8facebook3jsi16RuntimeDecoratorINS_6hermes17HermesRuntimeImplENS0_17ThreadSafeRuntimeEE11cloneSymbolEPKNS0_7Runtime12PointerValueE(ptr noundef nonnull align 8 dereferenceable(24) %this1, ptr noundef %1)
          to label %invoke.cont unwind label %lpad

invoke.cont:                                      ; preds = %entry
  call void @_ZN8facebook3jsi20WithRuntimeDecoratorINS0_6detail8WithLockINS_6hermes17HermesRuntimeImplENS4_12_GLOBAL__N_111HermesMutexEEES5_NS0_17ThreadSafeRuntimeEE6AroundD2Ev(ptr noundef nonnull align 8 dereferenceable(8) %around) #19
  ret ptr %call

lpad:                                             ; preds = %entry
  %2 = landingpad { ptr, i32 }
          cleanup
  %3 = extractvalue { ptr, i32 } %2, 0
  store ptr %3, ptr %exn.slot, align 8
  %4 = extractvalue { ptr, i32 } %2, 1
  store i32 %4, ptr %ehselector.slot, align 4
  call void @_ZN8facebook3jsi20WithRuntimeDecoratorINS0_6detail8WithLockINS_6hermes17HermesRuntimeImplENS4_12_GLOBAL__N_111HermesMutexEEES5_NS0_17ThreadSafeRuntimeEE6AroundD2Ev(ptr noundef nonnull align 8 dereferenceable(8) %around) #19
  br label %eh.resume

eh.resume:                                        ; preds = %lpad
  %exn = load ptr, ptr %exn.slot, align 8
  %sel = load i32, ptr %ehselector.slot, align 4
  %lpad.val = insertvalue { ptr, i32 } poison, ptr %exn, 0
  %lpad.val2 = insertvalue { ptr, i32 } %lpad.val, i32 %sel, 1
  resume { ptr, i32 } %lpad.val2
}