; Function Attrs: mustprogress uwtable
define internal noundef ptr @_ZN8facebook3jsi20WithRuntimeDecoratorINS0_6detail8WithLockINS_6hermes17HermesRuntimeImplENS4_12_GLOBAL__N_111HermesMutexEEES5_NS0_17ThreadSafeRuntimeEE11cloneSymbolEPKNS0_7Runtime12PointerValueE(ptr nocapture noundef nonnull readonly align 8 dereferenceable(32) %this, ptr noundef returned %pv) unnamed_addr #0 align 2 personality ptr @__gxx_personality_v0 {
entry:
  %with_ = getelementptr inbounds i8, ptr %this, i64 24
  %0 = load ptr, ptr %with_, align 8
  %call1.i.i.i.i.i.i = tail call noundef i32 @pthread_mutex_lock(ptr noundef nonnull %0) #37
  %tobool.not.i.i.i.i = icmp eq i32 %call1.i.i.i.i.i.i, 0
  br i1 %tobool.not.i.i.i.i, label %_ZN8facebook3jsi20WithRuntimeDecoratorINS0_6detail8WithLockINS_6hermes17HermesRuntimeImplENS4_12_GLOBAL__N_111HermesMutexEEES5_NS0_17ThreadSafeRuntimeEE6AroundC2ERS8_.exit, label %if.then.i.i.i.i

if.then.i.i.i.i:                                  ; preds = %entry
  tail call void @_ZSt20__throw_system_errori(i32 noundef %call1.i.i.i.i.i.i) #39
  unreachable

_ZN8facebook3jsi20WithRuntimeDecoratorINS0_6detail8WithLockINS_6hermes17HermesRuntimeImplENS4_12_GLOBAL__N_111HermesMutexEEES5_NS0_17ThreadSafeRuntimeEE6AroundC2ERS8_.exit: ; preds = %entry
  %tobool.not.i.i.i = icmp eq ptr %pv, null
  br i1 %tobool.not.i.i.i, label %invoke.cont, label %if.end.i.i.i

if.end.i.i.i:                                     ; preds = %_ZN8facebook3jsi20WithRuntimeDecoratorINS0_6detail8WithLockINS_6hermes17HermesRuntimeImplENS4_12_GLOBAL__N_111HermesMutexEEES5_NS0_17ThreadSafeRuntimeEE6AroundC2ERS8_.exit
  %refCount_.i.i.i.i = getelementptr inbounds i8, ptr %pv, i64 8
  %1 = atomicrmw add ptr %refCount_.i.i.i.i, i32 1 monotonic, align 4
  br label %invoke.cont

invoke.cont:                                      ; preds = %if.end.i.i.i, %_ZN8facebook3jsi20WithRuntimeDecoratorINS0_6detail8WithLockINS_6hermes17HermesRuntimeImplENS4_12_GLOBAL__N_111HermesMutexEEES5_NS0_17ThreadSafeRuntimeEE6AroundC2ERS8_.exit
  %call1.i.i.i.i.i.i2 = tail call noundef i32 @pthread_mutex_unlock(ptr noundef nonnull %0) #37
  ret ptr %pv
}